; Function Attrs: nounwind sspstrong uwtable
define internal fastcc i64 @io_buffer_read_F64(ptr noundef readonly captures(none) %0, i64 noundef %1, ptr noundef nonnull captures(none) %2) unnamed_addr #0 {
  %4 = load i64, ptr %2, align 8, !tbaa !22
  %5 = add i64 %4, 8
  %6 = icmp ugt i64 %5, %1
  br i1 %6, label %7, label %io_buffer_validate_type.exit

7:                                                ; preds = %3
  %8 = load i64, ptr @rb_eArgError, align 8, !tbaa !22
  tail call void (i64, ptr, ...) @rb_raise(i64 noundef %8, ptr noundef nonnull @.str.138, i64 noundef %5, i64 noundef %1) #26
  unreachable

io_buffer_validate_type.exit:                     ; preds = %3
  %9 = getelementptr i8, ptr %0, i64 %4
  %10 = load i64, ptr %9, align 1
  %11 = tail call noundef i64 @llvm.bswap.i64(i64 %10)
  %12 = bitcast i64 %11 to double
  store i64 %5, ptr %2, align 8, !tbaa !22
  %cond.i = icmp eq i64 %10, 48
  br i1 %cond.i, label %24, label %13

13:                                               ; preds = %io_buffer_validate_type.exit
  %14 = lshr i64 %11, 60
  %15 = trunc nuw nsw i64 %14 to i32
  %16 = and i32 %15, 7
  %17 = add nsw i32 %16, -3
  %.not7.i = icmp ult i32 %17, 2
  br i1 %.not7.i, label %18, label %22

18:                                               ; preds = %13
  %19 = tail call noundef i64 @llvm.fshl.i64(i64 range(i64 3458764513820540929, 3458764513820540928) %11, i64 range(i64 3458764513820540929, 3458764513820540928) %11, i64 3)
  %20 = and i64 %19, -4
  %21 = or disjoint i64 %20, 2
  br label %rb_float_new_inline.exit

22:                                               ; preds = %13
  %23 = icmp eq i64 %10, 0
  br i1 %23, label %rb_float_new_inline.exit, label %24

24:                                               ; preds = %22, %io_buffer_validate_type.exit
  %25 = tail call i64 @rb_float_new_in_heap(double noundef %12) #25
  br label %rb_float_new_inline.exit

rb_float_new_inline.exit:                         ; preds = %18, %22, %24
  %.0.i = phi i64 [ %25, %24 ], [ %21, %18 ], [ -9223372036854775806, %22 ]
  ret i64 %.0.i
}